target datalayout = "e-m:e-p270:32:32-p271:32:32-p272:64:64-i64:64-i128:128-f80:128-n8:16:32:64-S128"
target triple = "x86_64-pc-linux-gnu"

%"class.clang::PreferredTypeBuilder" = type { i8, %"class.clang::SourceLocation", %"class.clang::QualType", %"class.llvm::function_ref" }
%"class.clang::SourceLocation" = type { i32 }
%"class.clang::QualType" = type { %"class.llvm::PointerIntPair" }
%"class.llvm::PointerIntPair" = type { %"struct.llvm::detail::PunnedPointer" }
%"struct.llvm::detail::PunnedPointer" = type { [8 x i8] }
%"class.llvm::function_ref" = type { ptr, i64 }
%"class.clang::Token" = type <{ i32, i32, ptr, i16, i16, [4 x i8] }>
%"class.clang::Parser" = type { %"class.clang::CodeCompletionHandler", ptr, %"class.clang::Token", %"class.clang::SourceLocation", %"class.clang::PreferredTypeBuilder", i16, i16, i16, i16, ptr, ptr, i32, [16 x ptr], ptr, ptr, ptr, ptr, ptr, ptr, ptr, ptr, ptr, ptr, ptr, ptr, ptr, ptr, ptr, ptr, ptr, ptr, ptr, ptr, ptr, ptr, ptr, ptr, ptr, ptr, ptr, ptr, ptr, ptr, ptr, ptr, ptr, ptr, ptr, %"class.llvm::SmallDenseMap", %"class.std::unique_ptr", %"class.std::unique_ptr", %"class.std::unique_ptr", %"class.std::unique_ptr", %"class.std::unique_ptr", %"class.std::unique_ptr", %"class.std::unique_ptr", %"class.std::unique_ptr", %"class.std::unique_ptr", %"class.std::unique_ptr", %"class.std::unique_ptr", %"class.std::unique_ptr", %"class.std::unique_ptr", %"class.std::unique_ptr", %"class.std::unique_ptr", %"class.std::unique_ptr", %"class.std::unique_ptr", %"class.std::unique_ptr", %"class.std::unique_ptr", %"class.std::unique_ptr", %"class.std::unique_ptr", %"class.std::unique_ptr", %"class.std::unique_ptr", %"class.std::unique_ptr", %"class.std::unique_ptr", %"class.std::unique_ptr", %"class.std::unique_ptr", %"class.std::unique_ptr", %"class.std::unique_ptr", %"class.std::unique_ptr", %"class.std::unique_ptr", %"class.std::unique_ptr", %"class.std::unique_ptr", %"class.std::unique_ptr", %"class.std::unique_ptr", %"class.std::unique_ptr", %"class.std::unique_ptr", %"class.std::unique_ptr", %"class.std::unique_ptr", %"class.std::unique_ptr", %"class.std::unique_ptr", %"class.std::unique_ptr", %"class.std::unique_ptr", %"class.std::unique_ptr", %"class.std::unique_ptr", %"class.std::unique_ptr", %"class.std::unique_ptr", %"class.std::unique_ptr", %"class.std::unique_ptr.2", i8, i8, i8, i8, i8, i8, i8, i32, i32, i32, %"class.clang::AttributeFactory", %"class.llvm::SmallVector.21", i8, %"class.llvm::SmallVector.26", %"struct.clang::Parser::AngleBracketTracker", i8, i8, %"class.clang::SourceLocation", %"class.clang::SourceLocation", %"class.std::stack", ptr, [9 x ptr] }
%"class.clang::CodeCompletionHandler" = type { ptr }
%"class.llvm::SmallDenseMap" = type { i32, i32, %"struct.llvm::AlignedCharArrayUnion" }
%"struct.llvm::AlignedCharArrayUnion" = type { [64 x i8] }
%"class.std::unique_ptr" = type { %"struct.std::__uniq_ptr_data" }
%"struct.std::__uniq_ptr_data" = type { %"class.std::__uniq_ptr_impl" }
%"class.std::__uniq_ptr_impl" = type { %"class.std::tuple" }
%"class.std::tuple" = type { %"struct.std::_Tuple_impl" }
%"struct.std::_Tuple_impl" = type { %"struct.std::_Head_base.1" }
%"struct.std::_Head_base.1" = type { ptr }
%"class.std::unique_ptr.2" = type { %"struct.std::__uniq_ptr_data.3" }
%"struct.std::__uniq_ptr_data.3" = type { %"class.std::__uniq_ptr_impl.4" }
%"class.std::__uniq_ptr_impl.4" = type { %"class.std::tuple.5" }
%"class.std::tuple.5" = type { %"struct.std::_Tuple_impl.6" }
%"struct.std::_Tuple_impl.6" = type { %"struct.std::_Head_base.9" }
%"struct.std::_Head_base.9" = type { ptr }
%"class.clang::AttributeFactory" = type { %"class.llvm::BumpPtrAllocatorImpl", %"class.llvm::SmallVector.16" }
%"class.llvm::BumpPtrAllocatorImpl" = type { ptr, ptr, %"class.llvm::SmallVector", %"class.llvm::SmallVector.11", i64, i64 }
%"class.llvm::SmallVector" = type { %"class.llvm::SmallVectorImpl", %"struct.llvm::SmallVectorStorage" }
%"class.llvm::SmallVectorImpl" = type { %"class.llvm::SmallVectorTemplateBase" }
%"class.llvm::SmallVectorTemplateBase" = type { %"class.llvm::SmallVectorTemplateCommon" }
%"class.llvm::SmallVectorTemplateCommon" = type { %"class.llvm::SmallVectorBase" }
%"class.llvm::SmallVectorBase" = type { ptr, i32, i32 }
%"struct.llvm::SmallVectorStorage" = type { [32 x i8] }
%"class.llvm::SmallVector.11" = type { %"class.llvm::SmallVectorImpl.12" }
%"class.llvm::SmallVectorImpl.12" = type { %"class.llvm::SmallVectorTemplateBase.13" }
%"class.llvm::SmallVectorTemplateBase.13" = type { %"class.llvm::SmallVectorTemplateCommon.14" }
%"class.llvm::SmallVectorTemplateCommon.14" = type { %"class.llvm::SmallVectorBase" }
%"class.llvm::SmallVector.16" = type { %"class.llvm::SmallVectorImpl.17", %"struct.llvm::SmallVectorStorage.20" }
%"class.llvm::SmallVectorImpl.17" = type { %"class.llvm::SmallVectorTemplateBase.18" }
%"class.llvm::SmallVectorTemplateBase.18" = type { %"class.llvm::SmallVectorTemplateCommon.19" }
%"class.llvm::SmallVectorTemplateCommon.19" = type { %"class.llvm::SmallVectorBase" }
%"struct.llvm::SmallVectorStorage.20" = type { [1200 x i8] }
%"class.llvm::SmallVector.21" = type { %"class.llvm::SmallVectorImpl.22", %"struct.llvm::SmallVectorStorage.25" }
%"class.llvm::SmallVectorImpl.22" = type { %"class.llvm::SmallVectorTemplateBase.23" }
%"class.llvm::SmallVectorTemplateBase.23" = type { %"class.llvm::SmallVectorTemplateCommon.24" }
%"class.llvm::SmallVectorTemplateCommon.24" = type { %"class.llvm::SmallVectorBase" }
%"struct.llvm::SmallVectorStorage.25" = type { [128 x i8] }
%"class.llvm::SmallVector.26" = type { %"class.llvm::SmallVectorImpl.27", %"struct.llvm::SmallVectorStorage.30" }
%"class.llvm::SmallVectorImpl.27" = type { %"class.llvm::SmallVectorTemplateBase.28" }
%"class.llvm::SmallVectorTemplateBase.28" = type { %"class.llvm::SmallVectorTemplateCommon.29" }
%"class.llvm::SmallVectorTemplateCommon.29" = type { %"class.llvm::SmallVectorBase" }
%"struct.llvm::SmallVectorStorage.30" = type { [64 x i8] }
%"struct.clang::Parser::AngleBracketTracker" = type { %"class.llvm::SmallVector.31" }
%"class.llvm::SmallVector.31" = type { %"class.llvm::SmallVectorImpl.32", %"struct.llvm::SmallVectorStorage.35" }
%"class.llvm::SmallVectorImpl.32" = type { %"class.llvm::SmallVectorTemplateBase.33" }
%"class.llvm::SmallVectorTemplateBase.33" = type { %"class.llvm::SmallVectorTemplateCommon.34" }
%"class.llvm::SmallVectorTemplateCommon.34" = type { %"class.llvm::SmallVectorBase" }
%"struct.llvm::SmallVectorStorage.35" = type { [192 x i8] }
%"class.std::stack" = type { %"class.std::deque" }
%"class.std::deque" = type { %"class.std::_Deque_base" }
%"class.std::_Deque_base" = type { %"struct.std::_Deque_base<clang::Parser::ParsingClass *, std::allocator<clang::Parser::ParsingClass *>>::_Deque_impl" }
%"struct.std::_Deque_base<clang::Parser::ParsingClass *, std::allocator<clang::Parser::ParsingClass *>>::_Deque_impl" = type { %"struct.std::_Deque_base<clang::Parser::ParsingClass *, std::allocator<clang::Parser::ParsingClass *>>::_Deque_impl_data" }
%"struct.std::_Deque_base<clang::Parser::ParsingClass *, std::allocator<clang::Parser::ParsingClass *>>::_Deque_impl_data" = type { ptr, i64, %"struct.std::_Deque_iterator", %"struct.std::_Deque_iterator" }
%"struct.std::_Deque_iterator" = type { ptr, ptr, ptr, ptr }
%"class.llvm::ArrayRef.717" = type { ptr, i64 }

; Function Attrs: mustprogress nounwind uwtable
define linkonce_odr hidden void @_ZN5clang14SourceLocationC2Ev(ptr noundef nonnull align 4 dereferenceable(4) %0) unnamed_addr #0 comdat align 2 {
  %2 = alloca ptr, align 8
  store ptr %0, ptr %2, align 8
  %3 = load ptr, ptr %2, align 8
  %4 = getelementptr inbounds nuw %"class.clang::SourceLocation", ptr %3, i32 0, i32 0
  store i32 0, ptr %4, align 4
  ret void
}

; Function Attrs: mustprogress nounwind uwtable
define linkonce_odr hidden i32 @_ZN5clang14SourceLocation18getFromRawEncodingEj(i32 noundef %0) #0 comdat align 2 {
  %2 = alloca %"class.clang::SourceLocation", align 4
  %3 = alloca i32, align 4
  store i32 %0, ptr %3, align 4
  call void @_ZN5clang14SourceLocationC2Ev(ptr noundef nonnull align 4 dereferenceable(4) %2) #6
  %4 = load i32, ptr %3, align 4
  %5 = getelementptr inbounds nuw %"class.clang::SourceLocation", ptr %2, i32 0, i32 0
  store i32 %4, ptr %5, align 4
  %6 = getelementptr inbounds nuw %"class.clang::SourceLocation", ptr %2, i32 0, i32 0
  %7 = load i32, ptr %6, align 4
  ret i32 %7
}

; Function Attrs: mustprogress nounwind uwtable
define linkonce_odr hidden void @_ZN4llvm8ArrayRefIN5clang3tok9TokenKindEEC2ILm2EEERAT__KS3_(ptr noundef nonnull align 8 dereferenceable(16) %0, ptr noundef nonnull align 2 dereferenceable(4) %1) unnamed_addr #0 comdat align 2 {
  %3 = alloca ptr, align 8
  %4 = alloca ptr, align 8
  store ptr %0, ptr %3, align 8
  store ptr %1, ptr %4, align 8
  %5 = load ptr, ptr %3, align 8
  %6 = getelementptr inbounds nuw %"class.llvm::ArrayRef.717", ptr %5, i32 0, i32 0
  %7 = load ptr, ptr %4, align 8
  %8 = getelementptr inbounds [2 x i16], ptr %7, i64 0, i64 0
  store ptr %8, ptr %6, align 8
  %9 = getelementptr inbounds nuw %"class.llvm::ArrayRef.717", ptr %5, i32 0, i32 1
  store i64 2, ptr %9, align 8
  ret void
}

; Function Attrs: mustprogress nounwind uwtable
define linkonce_odr hidden i32 @_ZNK5clang5Token11getLocationEv(ptr noundef nonnull align 8 dereferenceable(20) %0) #0 comdat align 2 {
  %2 = alloca %"class.clang::SourceLocation", align 4
  %3 = alloca ptr, align 8
  store ptr %0, ptr %3, align 8
  %4 = load ptr, ptr %3, align 8
  %5 = getelementptr inbounds nuw %"class.clang::Token", ptr %4, i32 0, i32 0
  %6 = load i32, ptr %5, align 8
  %7 = call i32 @_ZN5clang14SourceLocation18getFromRawEncodingEj(i32 noundef %6)
  %8 = getelementptr inbounds nuw %"class.clang::SourceLocation", ptr %2, i32 0, i32 0
  store i32 %7, ptr %8, align 4
  %9 = getelementptr inbounds nuw %"class.clang::SourceLocation", ptr %2, i32 0, i32 0
  %10 = load i32, ptr %9, align 4
  ret i32 %10
}

; Function Attrs: mustprogress nounwind uwtable
define linkonce_odr hidden noundef zeroext i16 @_ZNK5clang5Token7getKindEv(ptr noundef nonnull align 8 dereferenceable(20) %0) #0 comdat align 2 {
  %2 = alloca ptr, align 8
  store ptr %0, ptr %2, align 8
  %3 = load ptr, ptr %2, align 8
  %4 = getelementptr inbounds nuw %"class.clang::Token", ptr %3, i32 0, i32 3
  %5 = load i16, ptr %4, align 8
  ret i16 %5
}

; Function Attrs: mustprogress nounwind uwtable
define linkonce_odr hidden noundef zeroext i1 @_ZNK5clang5Token5isNotENS_3tok9TokenKindE(ptr noundef nonnull align 8 dereferenceable(20) %0, i16 noundef zeroext %1) #0 comdat align 2 {
  %3 = alloca ptr, align 8
  %4 = alloca i16, align 2
  store ptr %0, ptr %3, align 8
  store i16 %1, ptr %4, align 2
  %5 = load ptr, ptr %3, align 8
  %6 = getelementptr inbounds nuw %"class.clang::Token", ptr %5, i32 0, i32 3
  %7 = load i16, ptr %6, align 8
  %8 = zext i16 %7 to i32
  %9 = load i16, ptr %4, align 2
  %10 = zext i16 %9 to i32
  %11 = icmp ne i32 %8, %10
  ret i1 %11
}

; Function Attrs: mustprogress nounwind uwtable
define linkonce_odr hidden noundef zeroext i1 @_ZN5clang6Parser9SkipUntilENS_3tok9TokenKindES2_NS0_14SkipUntilFlagsE(ptr noundef nonnull align 8 dereferenceable(2936) %0, i16 noundef zeroext %1, i16 noundef zeroext %2, i32 noundef %3) #0 comdat align 2 {
  %5 = alloca ptr, align 8
  %6 = alloca i16, align 2
  %7 = alloca i16, align 2
  %8 = alloca i32, align 4
  %9 = alloca [2 x i16], align 2
  %10 = alloca %"class.llvm::ArrayRef.717", align 8
  store ptr %0, ptr %5, align 8
  store i16 %1, ptr %6, align 2
  store i16 %2, ptr %7, align 2
  store i32 %3, ptr %8, align 4
  %11 = load ptr, ptr %5, align 8
  %12 = load i16, ptr %6, align 2
  store i16 %12, ptr %9, align 2
  %13 = getelementptr inbounds i16, ptr %9, i64 1
  %14 = load i16, ptr %7, align 2
  store i16 %14, ptr %13, align 2
  call void @_ZN4llvm8ArrayRefIN5clang3tok9TokenKindEEC2ILm2EEERAT__KS3_(ptr noundef nonnull align 8 dereferenceable(16) %10, ptr noundef nonnull align 2 dereferenceable(4) %9)
  %15 = load i32, ptr %8, align 4
  %16 = getelementptr inbounds nuw { ptr, i64 }, ptr %10, i32 0, i32 0
  %17 = load ptr, ptr %16, align 8
  %18 = getelementptr inbounds nuw { ptr, i64 }, ptr %10, i32 0, i32 1
  %19 = load i64, ptr %18, align 8
  %20 = call noundef zeroext i1 @_ZN5clang6Parser9SkipUntilEN4llvm8ArrayRefINS_3tok9TokenKindEEENS0_14SkipUntilFlagsE(ptr noundef nonnull align 8 dereferenceable(2936) %11, ptr %17, i64 %19, i32 noundef %15)
  ret i1 %20
}

; Function Attrs: mustprogress nounwind uwtable
define linkonce_odr hidden noundef i32 @_ZN5clangorENS_6Parser14SkipUntilFlagsES1_(i32 noundef %0, i32 noundef %1) #0 comdat {
  %3 = alloca i32, align 4
  %4 = alloca i32, align 4
  store i32 %0, ptr %3, align 4
  store i32 %1, ptr %4, align 4
  %5 = load i32, ptr %3, align 4
  %6 = load i32, ptr %4, align 4
  %7 = or i32 %5, %6
  ret i32 %7
}

; Function Attrs: mustprogress nounwind uwtable
define linkonce_odr hidden noundef zeroext i1 @_ZNK5clang5Token2isENS_3tok9TokenKindE(ptr noundef nonnull align 8 dereferenceable(20) %0, i16 noundef zeroext %1) #0 comdat align 2 {
  %3 = alloca ptr, align 8
  %4 = alloca i16, align 2
  store ptr %0, ptr %3, align 8
  store i16 %1, ptr %4, align 2
  %5 = load ptr, ptr %3, align 8
  %6 = getelementptr inbounds nuw %"class.clang::Token", ptr %5, i32 0, i32 3
  %7 = load i16, ptr %6, align 8
  %8 = zext i16 %7 to i32
  %9 = load i16, ptr %4, align 2
  %10 = zext i16 %9 to i32
  %11 = icmp eq i32 %8, %10
  ret i1 %11
}

; Function Attrs: mustprogress nounwind uwtable
define linkonce_odr hidden i32 @_ZN5clang6Parser14ConsumeBracketEv(ptr noundef nonnull align 8 dereferenceable(2936) %0) #0 comdat align 2 {
  %2 = alloca %"class.clang::SourceLocation", align 4
  %3 = alloca ptr, align 8
  %4 = alloca %"class.clang::SourceLocation", align 4
  store ptr %0, ptr %3, align 8
  %5 = load ptr, ptr %3, align 8
  %6 = getelementptr inbounds nuw %"class.clang::Parser", ptr %5, i32 0, i32 2
  %7 = call noundef zeroext i16 @_ZNK5clang5Token7getKindEv(ptr noundef nonnull align 8 dereferenceable(20) %6)
  %8 = zext i16 %7 to i32
  %9 = icmp eq i32 %8, 20
  br i1 %9, label %10, label %14

10:                                               ; preds = %1
  %11 = getelementptr inbounds nuw %"class.clang::Parser", ptr %5, i32 0, i32 6
  %12 = load i16, ptr %11, align 2
  %13 = add i16 %12, 1
  store i16 %13, ptr %11, align 2
  br label %24

14:                                               ; preds = %1
  %15 = getelementptr inbounds nuw %"class.clang::Parser", ptr %5, i32 0, i32 6
  %16 = load i16, ptr %15, align 2
  %17 = icmp ne i16 %16, 0
  br i1 %17, label %18, label %23

18:                                               ; preds = %14
  %19 = getelementptr inbounds nuw %"class.clang::Parser", ptr %5, i32 0, i32 112
  call void @_ZN5clang6Parser19AngleBracketTracker5clearERS0_(ptr noundef nonnull align 8 dereferenceable(208) %19, ptr noundef nonnull align 8 dereferenceable(2936) %5)
  %20 = getelementptr inbounds nuw %"class.clang::Parser", ptr %5, i32 0, i32 6
  %21 = load i16, ptr %20, align 2
  %22 = add i16 %21, -1
  store i16 %22, ptr %20, align 2
  br label %23

23:                                               ; preds = %18, %14
  br label %24

24:                                               ; preds = %23, %10
  %25 = getelementptr inbounds nuw %"class.clang::Parser", ptr %5, i32 0, i32 2
  %26 = call i32 @_ZNK5clang5Token11getLocationEv(ptr noundef nonnull align 8 dereferenceable(20) %25)
  %27 = getelementptr inbounds nuw %"class.clang::SourceLocation", ptr %4, i32 0, i32 0
  store i32 %26, ptr %27, align 4
  %28 = getelementptr inbounds nuw %"class.clang::Parser", ptr %5, i32 0, i32 3
  call void @llvm.memcpy.p0.p0.i64(ptr align 8 %28, ptr align 4 %4, i64 4, i1 false)
  %29 = getelementptr inbounds nuw %"class.clang::Parser", ptr %5, i32 0, i32 1
  %30 = load ptr, ptr %29, align 8
  %31 = getelementptr inbounds nuw %"class.clang::Parser", ptr %5, i32 0, i32 2
  call void @_ZN5clang12Preprocessor3LexERNS_5TokenE(ptr noundef nonnull align 8 dereferenceable(3288) %30, ptr noundef nonnull align 8 dereferenceable(20) %31)
  %32 = getelementptr inbounds nuw %"class.clang::Parser", ptr %5, i32 0, i32 3
  call void @llvm.memcpy.p0.p0.i64(ptr align 4 %2, ptr align 8 %32, i64 4, i1 false)
  %33 = getelementptr inbounds nuw %"class.clang::SourceLocation", ptr %2, i32 0, i32 0
  %34 = load i32, ptr %33, align 4
  ret i32 %34
}

; Function Attrs: mustprogress nounwind uwtable
define dso_local noundef i32 @_ZN5clang6Parser25TryParseBracketDeclaratorEv(ptr noundef nonnull align 8 dereferenceable(2936) %0) #0 align 2 {
  %2 = alloca i32, align 4
  %3 = alloca ptr, align 8
  %4 = alloca %"class.clang::SourceLocation", align 4
  %5 = alloca %"class.clang::SourceLocation", align 4
  store ptr %0, ptr %3, align 8
  %6 = load ptr, ptr %3, align 8
  %7 = call i32 @_ZN5clang6Parser14ConsumeBracketEv(ptr noundef nonnull align 8 dereferenceable(2936) %6)
  %8 = getelementptr inbounds nuw %"class.clang::SourceLocation", ptr %4, i32 0, i32 0
  store i32 %7, ptr %8, align 4
  %9 = getelementptr inbounds nuw %"class.clang::Parser", ptr %6, i32 0, i32 2
  %10 = call noundef zeroext i1 @_ZNK5clang5Token2isENS_3tok9TokenKindE(ptr noundef nonnull align 8 dereferenceable(20) %9, i16 noundef zeroext 24)
  br i1 %10, label %11, label %12

11:                                               ; preds = %1
  store i32 1, ptr %2, align 4
  br label %23

12:                                               ; preds = %1
  %13 = call noundef i32 @_ZN5clangorENS_6Parser14SkipUntilFlagsES1_(i32 noundef 1, i32 noundef 2)
  %14 = call noundef zeroext i1 @_ZN5clang6Parser9SkipUntilENS_3tok9TokenKindES2_NS0_14SkipUntilFlagsE(ptr noundef nonnull align 8 dereferenceable(2936) %6, i16 noundef zeroext 21, i16 noundef zeroext 66, i32 noundef %13)
  br i1 %14, label %16, label %15

15:                                               ; preds = %12
  store i32 3, ptr %2, align 4
  br label %23

16:                                               ; preds = %12
  %17 = getelementptr inbounds nuw %"class.clang::Parser", ptr %6, i32 0, i32 2
  %18 = call noundef zeroext i1 @_ZNK5clang5Token5isNotENS_3tok9TokenKindE(ptr noundef nonnull align 8 dereferenceable(20) %17, i16 noundef zeroext 21)
  br i1 %18, label %19, label %20

19:                                               ; preds = %16
  store i32 1, ptr %2, align 4
  br label %23

20:                                               ; preds = %16
  %21 = call i32 @_ZN5clang6Parser14ConsumeBracketEv(ptr noundef nonnull align 8 dereferenceable(2936) %6)
  %22 = getelementptr inbounds nuw %"class.clang::SourceLocation", ptr %5, i32 0, i32 0
  store i32 %21, ptr %22, align 4
  store i32 2, ptr %2, align 4
  br label %23

23:                                               ; preds = %20, %19, %15, %11
  %24 = load i32, ptr %2, align 4
  ret i32 %24
}