; Function Attrs: mustprogress nounwind uwtable
define dso_local noundef range(i32 1, 4) i32 @_ZN5clang6Parser25TryParseBracketDeclaratorEv(ptr noundef nonnull align 8 dereferenceable(2936) %0) local_unnamed_addr #0 align 2 {
  %2 = alloca [2 x i16], align 2
  %3 = getelementptr inbounds nuw i8, ptr %0, i64 32
  %4 = load i16, ptr %3, align 8
  %5 = icmp eq i16 %4, 20
  %6 = getelementptr inbounds nuw i8, ptr %0, i64 82
  %7 = load i16, ptr %6, align 2
  br i1 %5, label %8, label %10

8:                                                ; preds = %1
  %9 = add i16 %7, 1
  br label %.sink.split.i

10:                                               ; preds = %1
  %.not.i = icmp eq i16 %7, 0
  br i1 %.not.i, label %_ZN5clang6Parser14ConsumeBracketEv.exit, label %11

11:                                               ; preds = %10
  %12 = getelementptr inbounds nuw i8, ptr %0, i64 2552
  tail call void @_ZN5clang6Parser19AngleBracketTracker5clearERS0_(ptr noundef nonnull align 8 dereferenceable(208) %12, ptr noundef nonnull align 8 dereferenceable(2936) %0)
  %13 = load i16, ptr %6, align 2
  %14 = add i16 %13, -1
  br label %.sink.split.i

.sink.split.i:                                    ; preds = %11, %8
  %.sink.i = phi i16 [ %14, %11 ], [ %9, %8 ]
  store i16 %.sink.i, ptr %6, align 2
  br label %_ZN5clang6Parser14ConsumeBracketEv.exit

_ZN5clang6Parser14ConsumeBracketEv.exit:          ; preds = %10, %.sink.split.i
  %15 = getelementptr inbounds nuw i8, ptr %0, i64 16
  %16 = load i32, ptr %15, align 8
  %17 = getelementptr inbounds nuw i8, ptr %0, i64 40
  store i32 %16, ptr %17, align 8
  %18 = getelementptr inbounds nuw i8, ptr %0, i64 8
  %19 = load ptr, ptr %18, align 8
  tail call void @_ZN5clang12Preprocessor3LexERNS_5TokenE(ptr noundef nonnull align 8 dereferenceable(3288) %19, ptr noundef nonnull align 8 dereferenceable(20) %15) #9
  %20 = load i16, ptr %3, align 8
  %21 = icmp eq i16 %20, 24
  br i1 %21, label %34, label %22

22:                                               ; preds = %_ZN5clang6Parser14ConsumeBracketEv.exit
  call void @llvm.lifetime.start.p0(i64 4, ptr nonnull %2)
  store i16 21, ptr %2, align 2
  %23 = getelementptr inbounds nuw i8, ptr %2, i64 2
  store i16 66, ptr %23, align 2
  %24 = call noundef zeroext i1 @_ZN5clang6Parser9SkipUntilEN4llvm8ArrayRefINS_3tok9TokenKindEEENS0_14SkipUntilFlagsE(ptr noundef nonnull align 8 dereferenceable(2936) %0, ptr nonnull %2, i64 2, i32 noundef 3) #9
  call void @llvm.lifetime.end.p0(i64 4, ptr nonnull %2)
  br i1 %24, label %25, label %34

25:                                               ; preds = %22
  %26 = load i16, ptr %3, align 8
  %.not = icmp eq i16 %26, 21
  br i1 %.not, label %27, label %34

27:                                               ; preds = %25
  %28 = load i16, ptr %6, align 2
  %.not.i2 = icmp eq i16 %28, 0
  br i1 %.not.i2, label %_ZN5clang6Parser14ConsumeBracketEv.exit6, label %.sink.split.i3

.sink.split.i3:                                   ; preds = %27
  %29 = getelementptr inbounds nuw i8, ptr %0, i64 2552
  call void @_ZN5clang6Parser19AngleBracketTracker5clearERS0_(ptr noundef nonnull align 8 dereferenceable(208) %29, ptr noundef nonnull align 8 dereferenceable(2936) %0)
  %30 = load i16, ptr %6, align 2
  %31 = add i16 %30, -1
  store i16 %31, ptr %6, align 2
  br label %_ZN5clang6Parser14ConsumeBracketEv.exit6

_ZN5clang6Parser14ConsumeBracketEv.exit6:         ; preds = %27, %.sink.split.i3
  %32 = load i32, ptr %15, align 8
  store i32 %32, ptr %17, align 8
  %33 = load ptr, ptr %18, align 8
  call void @_ZN5clang12Preprocessor3LexERNS_5TokenE(ptr noundef nonnull align 8 dereferenceable(3288) %33, ptr noundef nonnull align 8 dereferenceable(20) %15) #9
  br label %34

34:                                               ; preds = %25, %22, %_ZN5clang6Parser14ConsumeBracketEv.exit, %_ZN5clang6Parser14ConsumeBracketEv.exit6
  %.0 = phi i32 [ 2, %_ZN5clang6Parser14ConsumeBracketEv.exit6 ], [ 1, %_ZN5clang6Parser14ConsumeBracketEv.exit ], [ 3, %22 ], [ 1, %25 ]
  ret i32 %.0
}